Certificate:
    Data:
        Version: 3 (0x2)
        Serial Number: 2 (0x2)
        Signature Algorithm: sha1WithRSAEncryption
        Issuer: O=Grid, OU=GlobusTest, OU=VDT, CN=VDT Test CA
        Validity
            Not Before: Jan  6 21:41:16 2010 GMT
            Not After : May 24 21:41:16 2037 GMT
        Subject: O=Grid, OU=GlobusTest, OU=VDT, CN=VDT Test
        Subject Public Key Info:
            Public Key Algorithm: rsaEncryption
            RSA Public Key: (1024 bit)
                Modulus (1024 bit):
                    00:d2:fb:49:2a:20:7c:7e:18:db:82:c0:35:d7:8b:
                    b4:6d:cf:c1:1c:00:9f:de:1a:db:70:73:b5:fb:70:
                    f5:7b:5d:10:cc:02:c1:7e:cb:d7:70:46:3c:d0:dd:
                    15:a9:c1:ad:91:71:f1:30:a4:02:61:72:3a:86:64:
                    53:7a:ee:4c:55:a1:e0:2d:75:1d:3f:13:32:bb:1c:
                    26:20:8f:87:1a:6d:b9:c9:e6:b2:c6:01:68:a4:1a:
                    55:23:de:f7:f3:2b:8b:ce:25:63:d2:20:94:14:51:
                    ff:92:60:6f:55:be:0a:99:d4:f6:dc:9a:c1:11:11:
                    4e:f4:89:31:ee:59:02:a0:13
                Exponent: 65537 (0x10001)
        X509v3 extensions:
            Netscape Cert Type: 
                SSL Client, SSL Server, S/MIME, Object Signing
    Signature Algorithm: sha1WithRSAEncryption
        86:e5:4f:1b:ef:05:85:c5:80:1f:85:e2:3c:9a:f4:1a:45:9b:
        58:92:f4:c8:6e:44:64:9e:a0:64:53:f0:2c:3b:ff:6a:40:a8:
        1a:bb:dd:2b:62:02:69:a1:bf:b2:48:06:6b:bd:92:81:11:d0:
        c2:dc:ec:a9:11:03:26:d2:f1:01:0b:af:0b:e3:01:41:c8:f4:
        16:42:71:4f:78:1c:a1:a1:ba:17:9d:8b:2a:b6:eb:66:8f:e0:
        5f:e8:12:38:32:c4:7e:ff:48:87:0c:c8:9d:3a:d7:6b:b6:b6:
        46:58:61:17:c2:74:fc:86:67:c2:cd:a8:8b:2e:e1:32:8f:83:
        61:c6
-----BEGIN CERTIFICATE-----
MIICGDCCAYGgAwIBAgIBAjANBgkqhkiG9w0BAQUFADBIMQ0wCwYDVQQKEwRHcmlk
MRMwEQYDVQQLEwpHbG9idXNUZXN0MQwwCgYDVQQLEwNWRFQxFDASBgNVBAMTC1ZE
VCBUZXN0IENBMB4XDTEwMDEwNjIxNDExNloXDTM3MDUyNDIxNDExNlowRTENMAsG
A1UEChMER3JpZDETMBEGA1UECxMKR2xvYnVzVGVzdDEMMAoGA1UECxMDVkRUMREw
DwYDVQQDEwhWRFQgVGVzdDCBnzANBgkqhkiG9w0BAQEFAAOBjQAwgYkCgYEA0vtJ
KiB8fhjbgsA114u0bc/BHACf3hrbcHO1+3D1e10QzALBfsvXcEY80N0VqcGtkXHx
MKQCYXI6hmRTeu5MVaHgLXUdPxMyuxwmII+HGm25yeayxgFopBpVI9738yuLziVj
0iCUFFH/kmBvVb4KmdT23JrBERFO9Ikx7lkCoBMCAwEAAaMVMBMwEQYJYIZIAYb4
QgEBBAQDAgTwMA0GCSqGSIb3DQEBBQUAA4GBAIblTxvvBYXFgB+F4jya9BpFm1iS
9MhuRGSeoGRT8Cw7/2pAqBq73StiAmmhv7JIBmu9koER0MLc7KkRAybS8QELrwvj
AUHI9BZCcU94HKGhuhediyq262aP4F/oEjgyxH7/SIcMyJ0612u2tkZYYRfCdPyG
Z8LNqIsu4TKPg2HG
-----END CERTIFICATE-----
